; Function Attrs: nounwind uwtable
define internal range(i32 0, 2) i32 @siv_dinit(ptr noundef %0, ptr noundef %1, i64 noundef %2, ptr readnone captures(none) %3, i64 %4, ptr noundef %5) #0 {
  %7 = tail call i32 @ossl_prov_is_running() #4
  %.not.i = icmp eq i32 %7, 0
  br i1 %.not.i, label %siv_init.exit, label %8

8:                                                ; preds = %6
  %9 = getelementptr inbounds nuw i8, ptr %0, i64 4
  %10 = load i8, ptr %9, align 4
  %11 = and i8 %10, -2
  store i8 %11, ptr %9, align 4
  %.not14.i = icmp eq ptr %1, null
  br i1 %.not14.i, label %21, label %12

12:                                               ; preds = %8
  %13 = getelementptr inbounds nuw i8, ptr %0, i64 8
  %14 = load i64, ptr %13, align 8, !tbaa !18
  %.not15.i = icmp eq i64 %2, %14
  br i1 %.not15.i, label %16, label %15

15:                                               ; preds = %12
  tail call void @ERR_new() #4
  tail call void @ERR_set_debug(ptr noundef nonnull @.str, i32 noundef 90, ptr noundef nonnull @__func__.siv_init) #4
  tail call void (i32, i32, ptr, ...) @ERR_set_error(i32 noundef 57, i32 noundef 105, ptr noundef null) #4
  br label %siv_init.exit

16:                                               ; preds = %12
  %17 = getelementptr inbounds nuw i8, ptr %0, i64 104
  %18 = load ptr, ptr %17, align 8, !tbaa !19
  %19 = load ptr, ptr %18, align 8, !tbaa !24
  %20 = tail call i32 %19(ptr noundef nonnull %0, ptr noundef nonnull %1, i64 noundef %2) #4
  %.not16.i = icmp eq i32 %20, 0
  br i1 %.not16.i, label %siv_init.exit, label %21

21:                                               ; preds = %16, %8
  %22 = tail call i32 @aes_siv_set_ctx_params(ptr noundef nonnull %0, ptr noundef %5)
  br label %siv_init.exit

siv_init.exit:                                    ; preds = %6, %15, %16, %21
  %.0.i = phi i32 [ 0, %15 ], [ %22, %21 ], [ 0, %6 ], [ 0, %16 ]
  ret i32 %.0.i
}